target datalayout = "e-m:e-p270:32:32-p271:32:32-p272:64:64-i64:64-i128:128-f80:128-n8:16:32:64-S128"
target triple = "x86_64-pc-linux-gnu"

%"class.smt::eq_justification" = type { ptr }
%"class.smt::enode" = type { ptr, ptr, ptr, ptr, i32, i32, i32, i16, i32, i8, i8, %class.ptr_vector.213, %class.id_var_list, %"struct.smt::trans_justification", %class.approx_set, %class.approx_set, [0 x ptr] }
%class.ptr_vector.213 = type { %class.vector.214 }
%class.vector.214 = type { ptr }
%class.id_var_list = type { i32, ptr }
%"struct.smt::trans_justification" = type { ptr, %"class.smt::eq_justification" }
%class.approx_set = type { %class.approx_set_tpl.310 }
%class.approx_set_tpl.310 = type { i64 }

; Function Attrs: mustprogress nounwind uwtable
define linkonce_odr hidden void @_ZN3smt5enode11unset_mark2Ev(ptr noundef nonnull align 8 dereferenceable(112) %0) #4 comdat align 2 {
  %2 = alloca ptr, align 8
  store ptr %0, ptr %2, align 8, !tbaa !144
  %3 = load ptr, ptr %2, align 8
  %4 = getelementptr inbounds nuw %"class.smt::enode", ptr %3, i32 0, i32 7
  %5 = load i16, ptr %4, align 4
  %6 = and i16 %5, -3
  %7 = or i16 %6, 0
  store i16 %7, ptr %4, align 4
  ret void
}

; Function Attrs: mustprogress nounwind uwtable
define linkonce_odr hidden void @_ZN3smt5enode9set_mark2Ev(ptr noundef nonnull align 8 dereferenceable(112) %0) #4 comdat align 2 {
  %2 = alloca ptr, align 8
  store ptr %0, ptr %2, align 8, !tbaa !144
  %3 = load ptr, ptr %2, align 8
  %4 = getelementptr inbounds nuw %"class.smt::enode", ptr %3, i32 0, i32 7
  %5 = load i16, ptr %4, align 4
  %6 = and i16 %5, -3
  %7 = or i16 %6, 2
  store i16 %7, ptr %4, align 4
  ret void
}

; Function Attrs: mustprogress uwtable
define linkonce_odr hidden void @_ZN3smt19conflict_resolution20mark_enodes_in_transILb0EEEvPNS_5enodeE(ptr noundef nonnull align 8 dereferenceable(356) %0, ptr noundef %1) #6 comdat align 2 {
  %3 = alloca ptr, align 8
  %4 = alloca ptr, align 8
  store ptr %0, ptr %3, align 8, !tbaa !28
  store ptr %1, ptr %4, align 8, !tbaa !144
  br label %5

5:                                                ; preds = %8, %2
  %6 = load ptr, ptr %4, align 8, !tbaa !144
  %7 = icmp ne ptr %6, null
  br i1 %7, label %8, label %14

8:                                                ; preds = %5
  %9 = load ptr, ptr %4, align 8, !tbaa !144
  call void @_ZN3smt5enode11unset_mark2Ev(ptr noundef nonnull align 8 dereferenceable(112) %9)
  %10 = load ptr, ptr %4, align 8, !tbaa !144
  %11 = getelementptr inbounds nuw %"class.smt::enode", ptr %10, i32 0, i32 13
  %12 = getelementptr inbounds nuw %"struct.smt::trans_justification", ptr %11, i32 0, i32 0
  %13 = load ptr, ptr %12, align 8, !tbaa !146
  store ptr %13, ptr %4, align 8, !tbaa !144
  br label %5, !llvm.loop !160

14:                                               ; preds = %5
  ret void
}

; Function Attrs: mustprogress nounwind uwtable
define linkonce_odr hidden noundef zeroext i1 @_ZNK3smt5enode10is_marked2Ev(ptr noundef nonnull align 8 dereferenceable(112) %0) #4 comdat align 2 {
  %2 = alloca ptr, align 8
  store ptr %0, ptr %2, align 8, !tbaa !144
  %3 = load ptr, ptr %2, align 8
  %4 = getelementptr inbounds nuw %"class.smt::enode", ptr %3, i32 0, i32 7
  %5 = load i16, ptr %4, align 4
  %6 = lshr i16 %5, 1
  %7 = and i16 %6, 1
  %8 = zext i16 %7 to i32
  %9 = icmp ne i32 %8, 0
  ret i1 %9
}

; Function Attrs: mustprogress uwtable
define linkonce_odr hidden void @_ZN3smt19conflict_resolution20mark_enodes_in_transILb1EEEvPNS_5enodeE(ptr noundef nonnull align 8 dereferenceable(356) %0, ptr noundef %1) #6 comdat align 2 {
  %3 = alloca ptr, align 8
  %4 = alloca ptr, align 8
  store ptr %0, ptr %3, align 8, !tbaa !28
  store ptr %1, ptr %4, align 8, !tbaa !144
  br label %5

5:                                                ; preds = %8, %2
  %6 = load ptr, ptr %4, align 8, !tbaa !144
  %7 = icmp ne ptr %6, null
  br i1 %7, label %8, label %14

8:                                                ; preds = %5
  %9 = load ptr, ptr %4, align 8, !tbaa !144
  call void @_ZN3smt5enode9set_mark2Ev(ptr noundef nonnull align 8 dereferenceable(112) %9)
  %10 = load ptr, ptr %4, align 8, !tbaa !144
  %11 = getelementptr inbounds nuw %"class.smt::enode", ptr %10, i32 0, i32 13
  %12 = getelementptr inbounds nuw %"struct.smt::trans_justification", ptr %11, i32 0, i32 0
  %13 = load ptr, ptr %12, align 8, !tbaa !146
  store ptr %13, ptr %4, align 8, !tbaa !144
  br label %5, !llvm.loop !159

14:                                               ; preds = %5
  ret void
}

; Function Attrs: mustprogress uwtable
define hidden noundef ptr @_ZN3smt19conflict_resolution20find_common_ancestorEPNS_5enodeES2_(ptr noundef nonnull align 8 dereferenceable(356) %0, ptr noundef %1, ptr noundef %2) #6 align 2 {
  %4 = alloca ptr, align 8
  %5 = alloca ptr, align 8
  %6 = alloca ptr, align 8
  store ptr %0, ptr %4, align 8, !tbaa !28
  store ptr %1, ptr %5, align 8, !tbaa !144
  store ptr %2, ptr %6, align 8, !tbaa !144
  %7 = load ptr, ptr %4, align 8
  %8 = load ptr, ptr %5, align 8, !tbaa !144
  call void @_ZN3smt19conflict_resolution20mark_enodes_in_transILb1EEEvPNS_5enodeE(ptr noundef nonnull align 8 dereferenceable(356) %7, ptr noundef %8)
  br label %9

9:                                                ; preds = %3, %15
  %10 = load ptr, ptr %6, align 8, !tbaa !144
  %11 = call noundef zeroext i1 @_ZNK3smt5enode10is_marked2Ev(ptr noundef nonnull align 8 dereferenceable(112) %10)
  br i1 %11, label %12, label %15

12:                                               ; preds = %9
  %13 = load ptr, ptr %5, align 8, !tbaa !144
  call void @_ZN3smt19conflict_resolution20mark_enodes_in_transILb0EEEvPNS_5enodeE(ptr noundef nonnull align 8 dereferenceable(356) %7, ptr noundef %13)
  %14 = load ptr, ptr %6, align 8, !tbaa !144
  ret ptr %14

15:                                               ; preds = %9
  %16 = load ptr, ptr %6, align 8, !tbaa !144
  %17 = getelementptr inbounds nuw %"class.smt::enode", ptr %16, i32 0, i32 13
  %18 = getelementptr inbounds nuw %"struct.smt::trans_justification", ptr %17, i32 0, i32 0
  %19 = load ptr, ptr %18, align 8, !tbaa !146
  store ptr %19, ptr %6, align 8, !tbaa !144
  br label %9, !llvm.loop !157
}

; Function Attrs: mustprogress uwtable
define hidden noundef zeroext i1 @_ZN3smt19conflict_resolution21visit_eq_justicationsEPNS_5enodeES2_(ptr noundef nonnull align 8 dereferenceable(356) %0, ptr noundef %1, ptr noundef %2) #6 align 2 {
  %4 = alloca ptr, align 8
  %5 = alloca ptr, align 8
  %6 = alloca ptr, align 8
  %7 = alloca ptr, align 8
  %8 = alloca i8, align 1
  %9 = alloca i8, align 1
  store ptr %0, ptr %4, align 8, !tbaa !28
  store ptr %1, ptr %5, align 8, !tbaa !144
  store ptr %2, ptr %6, align 8, !tbaa !144
  %10 = load ptr, ptr %4, align 8
  call void @llvm.lifetime.start.p0(i64 8, ptr %7) #3
  %11 = load ptr, ptr %5, align 8, !tbaa !144
  %12 = load ptr, ptr %6, align 8, !tbaa !144
  %13 = call noundef ptr @_ZN3smt19conflict_resolution20find_common_ancestorEPNS_5enodeES2_(ptr noundef nonnull align 8 dereferenceable(356) %10, ptr noundef %11, ptr noundef %12)
  store ptr %13, ptr %7, align 8, !tbaa !144
  call void @llvm.lifetime.start.p0(i64 1, ptr %8) #3
  %14 = load ptr, ptr %5, align 8, !tbaa !144
  %15 = load ptr, ptr %7, align 8, !tbaa !144
  %16 = call noundef zeroext i1 @_ZN3smt19conflict_resolution17visit_trans_proofEPNS_5enodeES2_(ptr noundef nonnull align 8 dereferenceable(356) %10, ptr noundef %14, ptr noundef %15)
  %17 = zext i1 %16 to i8
  store i8 %17, ptr %8, align 1, !tbaa !10
  call void @llvm.lifetime.start.p0(i64 1, ptr %9) #3
  %18 = load ptr, ptr %6, align 8, !tbaa !144
  %19 = load ptr, ptr %7, align 8, !tbaa !144
  %20 = call noundef zeroext i1 @_ZN3smt19conflict_resolution17visit_trans_proofEPNS_5enodeES2_(ptr noundef nonnull align 8 dereferenceable(356) %10, ptr noundef %18, ptr noundef %19)
  %21 = zext i1 %20 to i8
  store i8 %21, ptr %9, align 1, !tbaa !10
  %22 = load i8, ptr %8, align 1, !tbaa !10, !range !12, !noundef !13
  %23 = trunc i8 %22 to i1
  br i1 %23, label %24, label %27

24:                                               ; preds = %3
  %25 = load i8, ptr %9, align 1, !tbaa !10, !range !12, !noundef !13
  %26 = trunc i8 %25 to i1
  br label %27

27:                                               ; preds = %24, %3
  %28 = phi i1 [ false, %3 ], [ %26, %24 ]
  call void @llvm.lifetime.end.p0(i64 1, ptr %9) #3
  call void @llvm.lifetime.end.p0(i64 1, ptr %8) #3
  call void @llvm.lifetime.end.p0(i64 8, ptr %7) #3
  ret i1 %28
}