; Function Attrs: mustprogress uwtable
define hidden noundef zeroext i1 @_ZN3smt19conflict_resolution21visit_eq_justicationsEPNS_5enodeES2_(ptr noundef nonnull align 8 dereferenceable(356) %0, ptr noundef captures(address) %1, ptr noundef captures(address) %2) local_unnamed_addr #4 align 2 {
  %.not3.i.i = icmp eq ptr %1, null
  br i1 %.not3.i.i, label %_ZN3smt19conflict_resolution20mark_enodes_in_transILb1EEEvPNS_5enodeE.exit.i, label %.lr.ph.i.i

.lr.ph.i.i:                                       ; preds = %3, %.lr.ph.i.i
  %.04.i.i = phi ptr [ %8, %.lr.ph.i.i ], [ %1, %3 ]
  %4 = getelementptr inbounds nuw i8, ptr %.04.i.i, i64 44
  %5 = load i16, ptr %4, align 4
  %6 = or i16 %5, 2
  store i16 %6, ptr %4, align 4
  %7 = getelementptr inbounds nuw i8, ptr %.04.i.i, i64 80
  %8 = load ptr, ptr %7, align 8, !tbaa !124
  %.not.i.i = icmp eq ptr %8, null
  br i1 %.not.i.i, label %_ZN3smt19conflict_resolution20mark_enodes_in_transILb1EEEvPNS_5enodeE.exit.i, label %.lr.ph.i.i, !llvm.loop !137

_ZN3smt19conflict_resolution20mark_enodes_in_transILb1EEEvPNS_5enodeE.exit.i: ; preds = %.lr.ph.i.i, %3
  %9 = getelementptr inbounds nuw i8, ptr %2, i64 44
  %10 = load i16, ptr %9, align 4
  %11 = and i16 %10, 2
  %.not10.i = icmp eq i16 %11, 0
  br i1 %.not10.i, label %.lr.ph.i, label %._crit_edge.i

._crit_edge.i:                                    ; preds = %.lr.ph.i, %_ZN3smt19conflict_resolution20mark_enodes_in_transILb1EEEvPNS_5enodeE.exit.i
  %.0.lcssa.i = phi ptr [ %2, %_ZN3smt19conflict_resolution20mark_enodes_in_transILb1EEEvPNS_5enodeE.exit.i ], [ %18, %.lr.ph.i ]
  br i1 %.not3.i.i, label %_ZN3smt19conflict_resolution20find_common_ancestorEPNS_5enodeES2_.exit, label %.lr.ph.i7.i

.lr.ph.i7.i:                                      ; preds = %._crit_edge.i, %.lr.ph.i7.i
  %.04.i8.i = phi ptr [ %16, %.lr.ph.i7.i ], [ %1, %._crit_edge.i ]
  %12 = getelementptr inbounds nuw i8, ptr %.04.i8.i, i64 44
  %13 = load i16, ptr %12, align 4
  %14 = and i16 %13, -3
  store i16 %14, ptr %12, align 4
  %15 = getelementptr inbounds nuw i8, ptr %.04.i8.i, i64 80
  %16 = load ptr, ptr %15, align 8, !tbaa !124
  %.not.i9.i = icmp eq ptr %16, null
  br i1 %.not.i9.i, label %_ZN3smt19conflict_resolution20find_common_ancestorEPNS_5enodeES2_.exit, label %.lr.ph.i7.i, !llvm.loop !138

.lr.ph.i:                                         ; preds = %_ZN3smt19conflict_resolution20mark_enodes_in_transILb1EEEvPNS_5enodeE.exit.i, %.lr.ph.i
  %.011.i = phi ptr [ %18, %.lr.ph.i ], [ %2, %_ZN3smt19conflict_resolution20mark_enodes_in_transILb1EEEvPNS_5enodeE.exit.i ]
  %17 = getelementptr inbounds nuw i8, ptr %.011.i, i64 80
  %18 = load ptr, ptr %17, align 8, !tbaa !124
  %19 = getelementptr inbounds nuw i8, ptr %18, i64 44
  %20 = load i16, ptr %19, align 4
  %21 = and i16 %20, 2
  %.not.i = icmp eq i16 %21, 0
  br i1 %.not.i, label %.lr.ph.i, label %._crit_edge.i, !llvm.loop !139

_ZN3smt19conflict_resolution20find_common_ancestorEPNS_5enodeES2_.exit: ; preds = %.lr.ph.i7.i, %._crit_edge.i
  %22 = tail call noundef zeroext i1 @_ZN3smt19conflict_resolution17visit_trans_proofEPNS_5enodeES2_(ptr noundef nonnull align 8 dereferenceable(356) %0, ptr noundef %1, ptr noundef nonnull %.0.lcssa.i)
  %23 = tail call noundef zeroext i1 @_ZN3smt19conflict_resolution17visit_trans_proofEPNS_5enodeES2_(ptr noundef nonnull align 8 dereferenceable(356) %0, ptr noundef nonnull %2, ptr noundef nonnull %.0.lcssa.i)
  %24 = and i1 %22, %23
  ret i1 %24
}